(lp0
(lp1
S'127.0.0.1'
p2
aS'80'
p3
aS'marcelo.martinovic@gmail.com'
p4
aS'False'
p5
aI1
aa(lp6
g2
aS'22'
p7
ag4
ag5
aI2
aa(lp8
g2
aS'21'
p9
ag4
aS'True'
p10
aI3
aa(lp11
g2
aS'5432'
p12
ag4
ag5
aI4
aa(lp13
g2
aS'3306'
p14
ag4
ag5
aI5
aa(lp15
S'192.168.122.31'
p16
ag3
ag4
ag10
aI6
aa(lp17
g16
ag7
ag4
ag10
aI7
aa(lp18
g16
ag12
ag4
ag10
aI8
aa(lp19
g16
ag14
ag4
ag10
aI9
aa(lp20
S'192.168.0.202'
p21
ag3
ag4
ag5
aI10
aa(lp22
g21
ag7
ag4
ag5
aI11
aa(lp23
g21
aS'25'
p24
ag4
ag5
aI12
aa(lp25
g21
ag3
ag4
ag5
aI13
aa(lp26
g21
aS'111'
p27
ag4
ag5
aI14
aa(lp28
g21
aS'139'
p29
ag4
ag5
aI15
aa(lp30
g21
aS'443'
p31
ag4
ag5
aI16
aa(lp32
g21
aS'445'
p33
ag4
ag5
aI17
aa(lp34
g21
ag14
ag4
ag5
aI18
aa(lp35
g21
aS'3690'
p36
ag4
ag5
aI19
aa(lp37
g21
aS'5900'
p38
ag4
ag5
aI20
aa(lp39
g21
aS'8009'
p40
ag4
ag5
aI21
aa(lp41
g21
aS'8010'
p42
ag4
ag5
aI22
aa(lp43
g21
aS'8011'
p44
ag4
ag5
aI23
aa(lp45
g21
aS'8080'
p46
ag4
ag5
aI24
aa(lp47
g21
aS'8088'
p48
ag4
ag5
aI25
aa(lp49
g21
aS'8089'
p50
ag4
ag5
aI26
aa(lp51
g21
aS'8090'
p52
ag4
ag5
aI27
aa(lp53
g21
aS'12000'
p54
ag4
ag5
aI28
aa(lp55
g21
aS'15000'
p56
ag4
ag5
aI29
aa(lp57
g21
aS'20000'
p58
ag4
ag5
aI30
aa.